target datalayout = "e-m:e-p270:32:32-p271:32:32-p272:64:64-i64:64-i128:128-f80:128-n8:16:32:64-S128"
target triple = "x86_64-pc-linux-gnu"

%"struct.Luau::FValue.0" = type { i32, i8, ptr, ptr }
%"struct.Luau::NotNull" = type { ptr }
%"struct.Luau::Location" = type { %"struct.Luau::Position", %"struct.Luau::Position" }
%"struct.Luau::Position" = type { i32, i32 }
%"struct.Luau::RecursionCounter" = type { ptr }
%"struct.Luau::AnyTypeSummary" = type { %"struct.Luau::TypeArena", ptr, %"class.Luau::DenseHashSet", i32, %"class.std::__cxx11::basic_string", i32, [4 x i8], %"class.Luau::DenseHashMap", %"class.Luau::DenseHashSet", %"class.std::vector.17" }
%"struct.Luau::TypeArena" = type { %"class.Luau::TypedAllocator", %"class.Luau::TypedAllocator.6", ptr }
%"class.Luau::TypedAllocator" = type { i8, %"class.std::vector.1", i64 }
%"class.std::vector.1" = type { %"struct.std::_Vector_base.2" }
%"struct.std::_Vector_base.2" = type { %"struct.std::_Vector_base<Luau::Type *, std::allocator<Luau::Type *>>::_Vector_impl" }
%"struct.std::_Vector_base<Luau::Type *, std::allocator<Luau::Type *>>::_Vector_impl" = type { %"struct.std::_Vector_base<Luau::Type *, std::allocator<Luau::Type *>>::_Vector_impl_data" }
%"struct.std::_Vector_base<Luau::Type *, std::allocator<Luau::Type *>>::_Vector_impl_data" = type { ptr, ptr, ptr }
%"class.Luau::TypedAllocator.6" = type { i8, %"class.std::vector.7", i64 }
%"class.std::vector.7" = type { %"struct.std::_Vector_base.8" }
%"struct.std::_Vector_base.8" = type { %"struct.std::_Vector_base<Luau::TypePackVar *, std::allocator<Luau::TypePackVar *>>::_Vector_impl" }
%"struct.std::_Vector_base<Luau::TypePackVar *, std::allocator<Luau::TypePackVar *>>::_Vector_impl" = type { %"struct.std::_Vector_base<Luau::TypePackVar *, std::allocator<Luau::TypePackVar *>>::_Vector_impl_data" }
%"struct.std::_Vector_base<Luau::TypePackVar *, std::allocator<Luau::TypePackVar *>>::_Vector_impl_data" = type { ptr, ptr, ptr }
%"class.std::__cxx11::basic_string" = type { %"struct.std::__cxx11::basic_string<char>::_Alloc_hider", i64, %union.anon }
%"struct.std::__cxx11::basic_string<char>::_Alloc_hider" = type { ptr }
%union.anon = type { i64, [8 x i8] }
%"class.Luau::DenseHashMap" = type { %"class.Luau::detail::DenseHashTable.15" }
%"class.Luau::detail::DenseHashTable.15" = type <{ ptr, i64, i64, ptr, [8 x i8] }>
%"class.Luau::DenseHashSet" = type { %"class.Luau::detail::DenseHashTable" }
%"class.Luau::detail::DenseHashTable" = type <{ ptr, i64, i64, ptr, [8 x i8] }>
%"class.std::vector.17" = type { %"struct.std::_Vector_base.18" }
%"struct.std::_Vector_base.18" = type { %"struct.std::_Vector_base<Luau::AnyTypeSummary::TypeInfo, std::allocator<Luau::AnyTypeSummary::TypeInfo>>::_Vector_impl" }
%"struct.std::_Vector_base<Luau::AnyTypeSummary::TypeInfo, std::allocator<Luau::AnyTypeSummary::TypeInfo>>::_Vector_impl" = type { %"struct.std::_Vector_base<Luau::AnyTypeSummary::TypeInfo, std::allocator<Luau::AnyTypeSummary::TypeInfo>>::_Vector_impl_data" }
%"struct.std::_Vector_base<Luau::AnyTypeSummary::TypeInfo, std::allocator<Luau::AnyTypeSummary::TypeInfo>>::_Vector_impl_data" = type { ptr, ptr, ptr }
%"class.Luau::AstStatBlock" = type <{ %"class.Luau::AstStat.base", [3 x i8], %"struct.Luau::AstArray", i8, [7 x i8] }>
%"class.Luau::AstStat.base" = type { %"class.Luau::AstNode.base", i8 }
%"class.Luau::AstNode.base" = type <{ ptr, i32, %"struct.Luau::Location" }>
%"struct.Luau::AstArray" = type { ptr, i64 }

@_ZN4FInt28LuauAnySummaryRecursionLimitE = dso_local global %"struct.Luau::FValue.0" zeroinitializer, align 8

; Function Attrs: mustprogress nounwind uwtable
define linkonce_odr dso_local void @_ZN4Luau16RecursionCounterD2Ev(ptr noundef nonnull align 8 dereferenceable(8) %0) unnamed_addr #2 comdat align 2 {
  %2 = alloca ptr, align 8
  store ptr %0, ptr %2, align 8, !tbaa !290
  %3 = load ptr, ptr %2, align 8
  %4 = getelementptr inbounds nuw %"struct.Luau::RecursionCounter", ptr %3, i32 0, i32 0
  %5 = load ptr, ptr %4, align 8, !tbaa !292
  %6 = load i32, ptr %5, align 4, !tbaa !4
  %7 = add nsw i32 %6, -1
  store i32 %7, ptr %5, align 4, !tbaa !4
  ret void
}

; Function Attrs: mustprogress nounwind uwtable
define linkonce_odr dso_local noundef ptr @_ZNK4Luau8AstArrayIPNS_7AstStatEE3endEv(ptr noundef nonnull align 8 dereferenceable(16) %0) #2 comdat align 2 {
  %2 = alloca ptr, align 8
  store ptr %0, ptr %2, align 8, !tbaa !138
  %3 = load ptr, ptr %2, align 8
  %4 = getelementptr inbounds nuw %"struct.Luau::AstArray", ptr %3, i32 0, i32 0
  %5 = load ptr, ptr %4, align 8, !tbaa !294
  %6 = getelementptr inbounds nuw %"struct.Luau::AstArray", ptr %3, i32 0, i32 1
  %7 = load i64, ptr %6, align 8, !tbaa !295
  %8 = getelementptr inbounds nuw ptr, ptr %5, i64 %7
  ret ptr %8
}

; Function Attrs: mustprogress nounwind uwtable
define linkonce_odr dso_local noundef ptr @_ZNK4Luau8AstArrayIPNS_7AstStatEE5beginEv(ptr noundef nonnull align 8 dereferenceable(16) %0) #2 comdat align 2 {
  %2 = alloca ptr, align 8
  store ptr %0, ptr %2, align 8, !tbaa !138
  %3 = load ptr, ptr %2, align 8
  %4 = getelementptr inbounds nuw %"struct.Luau::AstArray", ptr %3, i32 0, i32 0
  %5 = load ptr, ptr %4, align 8, !tbaa !294
  ret ptr %5
}

; Function Attrs: alwaysinline mustprogress nounwind uwtable
define linkonce_odr dso_local noundef i32 @_ZNK4Luau6FValueIiEcviEv(ptr noundef nonnull align 8 dereferenceable(24) %0) #10 comdat align 2 {
  %2 = alloca ptr, align 8
  store ptr %0, ptr %2, align 8, !tbaa !35
  %3 = load ptr, ptr %2, align 8
  %4 = getelementptr inbounds nuw %"struct.Luau::FValue.0", ptr %3, i32 0, i32 0
  %5 = load i32, ptr %4, align 8, !tbaa !37
  ret i32 %5
}

; Function Attrs: mustprogress nounwind uwtable
define linkonce_odr dso_local void @_ZN4Luau16RecursionCounterC2EPi(ptr noundef nonnull align 8 dereferenceable(8) %0, ptr noundef %1) unnamed_addr #2 comdat align 2 {
  %3 = alloca ptr, align 8
  %4 = alloca ptr, align 8
  store ptr %0, ptr %3, align 8, !tbaa !290
  store ptr %1, ptr %4, align 8, !tbaa !97
  %5 = load ptr, ptr %3, align 8
  %6 = getelementptr inbounds nuw %"struct.Luau::RecursionCounter", ptr %5, i32 0, i32 0
  %7 = load ptr, ptr %4, align 8, !tbaa !97
  store ptr %7, ptr %6, align 8, !tbaa !292
  %8 = load ptr, ptr %4, align 8, !tbaa !97
  %9 = load i32, ptr %8, align 4, !tbaa !4
  %10 = add nsw i32 %9, 1
  store i32 %10, ptr %8, align 4, !tbaa !4
  ret void
}

; Function Attrs: mustprogress uwtable
define dso_local void @_ZN4Luau14AnyTypeSummary5visitEPKNS_5ScopeEPNS_12AstStatBlockEPKNS_6ModuleENS_7NotNullINS_12BuiltinTypesEEE(ptr noundef nonnull align 8 dereferenceable(288) %0, ptr noundef %1, ptr noundef %2, ptr noundef %3, ptr %4) #8 align 2 personality ptr @__gxx_personality_v0 {
  %6 = alloca %"struct.Luau::NotNull", align 8
  %7 = alloca ptr, align 8
  %8 = alloca ptr, align 8
  %9 = alloca ptr, align 8
  %10 = alloca ptr, align 8
  %11 = alloca %"struct.Luau::RecursionCounter", align 8
  %12 = alloca ptr, align 8
  %13 = alloca i32, align 4
  %14 = alloca i32, align 4
  %15 = alloca ptr, align 8
  %16 = alloca ptr, align 8
  %17 = alloca ptr, align 8
  %18 = alloca ptr, align 8
  %19 = alloca %"struct.Luau::NotNull", align 8
  %20 = getelementptr inbounds nuw %"struct.Luau::NotNull", ptr %6, i32 0, i32 0
  store ptr %4, ptr %20, align 8
  store ptr %0, ptr %7, align 8, !tbaa !42
  store ptr %1, ptr %8, align 8, !tbaa !52
  store ptr %2, ptr %9, align 8, !tbaa !54
  store ptr %3, ptr %10, align 8, !tbaa !44
  %21 = load ptr, ptr %7, align 8
  call void @llvm.lifetime.start.p0(i64 8, ptr %11) #4
  %22 = getelementptr inbounds nuw %"struct.Luau::AnyTypeSummary", ptr %21, i32 0, i32 3
  call void @_ZN4Luau16RecursionCounterC2EPi(ptr noundef nonnull align 8 dereferenceable(8) %11, ptr noundef %22)
  %23 = getelementptr inbounds nuw %"struct.Luau::AnyTypeSummary", ptr %21, i32 0, i32 3
  %24 = load i32, ptr %23, align 8, !tbaa !105
  %25 = invoke noundef i32 @_ZNK4Luau6FValueIiEcviEv(ptr noundef nonnull align 8 dereferenceable(24) @_ZN4FInt28LuauAnySummaryRecursionLimitE)
          to label %26 unwind label %29

26:                                               ; preds = %5
  %27 = icmp sge i32 %24, %25
  br i1 %27, label %28, label %33

28:                                               ; preds = %26
  store i32 1, ptr %14, align 4
  br label %74

29:                                               ; preds = %5
  %30 = landingpad { ptr, i32 }
          cleanup
  %31 = extractvalue { ptr, i32 } %30, 0
  store ptr %31, ptr %12, align 8
  %32 = extractvalue { ptr, i32 } %30, 1
  store i32 %32, ptr %13, align 4
  br label %77

33:                                               ; preds = %26
  call void @llvm.lifetime.start.p0(i64 8, ptr %15) #4
  %34 = load ptr, ptr %9, align 8, !tbaa !54
  %35 = getelementptr inbounds nuw %"class.Luau::AstStatBlock", ptr %34, i32 0, i32 2
  store ptr %35, ptr %15, align 8, !tbaa !138
  call void @llvm.lifetime.start.p0(i64 8, ptr %16) #4
  %36 = load ptr, ptr %15, align 8, !tbaa !138
  %37 = invoke noundef ptr @_ZNK4Luau8AstArrayIPNS_7AstStatEE5beginEv(ptr noundef nonnull align 8 dereferenceable(16) %36)
          to label %38 unwind label %47

38:                                               ; preds = %33
  store ptr %37, ptr %16, align 8, !tbaa !140
  call void @llvm.lifetime.start.p0(i64 8, ptr %17) #4
  %39 = load ptr, ptr %15, align 8, !tbaa !138
  %40 = invoke noundef ptr @_ZNK4Luau8AstArrayIPNS_7AstStatEE3endEv(ptr noundef nonnull align 8 dereferenceable(16) %39)
          to label %41 unwind label %51

41:                                               ; preds = %38
  store ptr %40, ptr %17, align 8, !tbaa !140
  br label %42

42:                                               ; preds = %64, %41
  %43 = load ptr, ptr %16, align 8, !tbaa !140
  %44 = load ptr, ptr %17, align 8, !tbaa !140
  %45 = icmp ne ptr %43, %44
  br i1 %45, label %55, label %46

46:                                               ; preds = %42
  store i32 2, ptr %14, align 4
  call void @llvm.lifetime.end.p0(i64 8, ptr %17) #4
  call void @llvm.lifetime.end.p0(i64 8, ptr %16) #4
  call void @llvm.lifetime.end.p0(i64 8, ptr %15) #4
  br label %73

47:                                               ; preds = %33
  %48 = landingpad { ptr, i32 }
          cleanup
  %49 = extractvalue { ptr, i32 } %48, 0
  store ptr %49, ptr %12, align 8
  %50 = extractvalue { ptr, i32 } %48, 1
  store i32 %50, ptr %13, align 4
  br label %72

51:                                               ; preds = %38
  %52 = landingpad { ptr, i32 }
          cleanup
  %53 = extractvalue { ptr, i32 } %52, 0
  store ptr %53, ptr %12, align 8
  %54 = extractvalue { ptr, i32 } %52, 1
  store i32 %54, ptr %13, align 4
  br label %71

55:                                               ; preds = %42
  call void @llvm.lifetime.start.p0(i64 8, ptr %18) #4
  %56 = load ptr, ptr %16, align 8, !tbaa !140
  %57 = load ptr, ptr %56, align 8, !tbaa !46
  store ptr %57, ptr %18, align 8, !tbaa !46
  %58 = load ptr, ptr %8, align 8, !tbaa !52
  %59 = load ptr, ptr %18, align 8, !tbaa !46
  %60 = load ptr, ptr %10, align 8, !tbaa !44
  call void @llvm.memcpy.p0.p0.i64(ptr align 8 %19, ptr align 8 %6, i64 8, i1 false), !tbaa.struct !49
  %61 = getelementptr inbounds nuw %"struct.Luau::NotNull", ptr %19, i32 0, i32 0
  %62 = load ptr, ptr %61, align 8
  invoke void @_ZN4Luau14AnyTypeSummary5visitEPKNS_5ScopeEPNS_7AstStatEPKNS_6ModuleENS_7NotNullINS_12BuiltinTypesEEE(ptr noundef nonnull align 8 dereferenceable(288) %21, ptr noundef %58, ptr noundef %59, ptr noundef %60, ptr %62)
          to label %63 unwind label %67

63:                                               ; preds = %55
  call void @llvm.lifetime.end.p0(i64 8, ptr %18) #4
  br label %64

64:                                               ; preds = %63
  %65 = load ptr, ptr %16, align 8, !tbaa !140
  %66 = getelementptr inbounds nuw ptr, ptr %65, i32 1
  store ptr %66, ptr %16, align 8, !tbaa !140
  br label %42

67:                                               ; preds = %55
  %68 = landingpad { ptr, i32 }
          cleanup
  %69 = extractvalue { ptr, i32 } %68, 0
  store ptr %69, ptr %12, align 8
  %70 = extractvalue { ptr, i32 } %68, 1
  store i32 %70, ptr %13, align 4
  call void @llvm.lifetime.end.p0(i64 8, ptr %18) #4
  br label %71

71:                                               ; preds = %67, %51
  call void @llvm.lifetime.end.p0(i64 8, ptr %17) #4
  br label %72

72:                                               ; preds = %71, %47
  call void @llvm.lifetime.end.p0(i64 8, ptr %16) #4
  call void @llvm.lifetime.end.p0(i64 8, ptr %15) #4
  br label %77

73:                                               ; preds = %46
  store i32 0, ptr %14, align 4
  br label %74

74:                                               ; preds = %73, %28
  call void @_ZN4Luau16RecursionCounterD2Ev(ptr noundef nonnull align 8 dereferenceable(8) %11) #4
  call void @llvm.lifetime.end.p0(i64 8, ptr %11) #4
  %75 = load i32, ptr %14, align 4
  switch i32 %75, label %83 [
    i32 0, label %76
    i32 1, label %76
  ]

76:                                               ; preds = %74, %74
  ret void

77:                                               ; preds = %72, %29
  call void @_ZN4Luau16RecursionCounterD2Ev(ptr noundef nonnull align 8 dereferenceable(8) %11) #4
  call void @llvm.lifetime.end.p0(i64 8, ptr %11) #4
  br label %78

78:                                               ; preds = %77
  %79 = load ptr, ptr %12, align 8
  %80 = load i32, ptr %13, align 4
  %81 = insertvalue { ptr, i32 } poison, ptr %79, 0
  %82 = insertvalue { ptr, i32 } %81, i32 %80, 1
  resume { ptr, i32 } %82

83:                                               ; preds = %74
  unreachable
}