; Function Attrs: mustprogress uwtable
define dso_local void @_ZN4Luau14AnyTypeSummary5visitEPKNS_5ScopeEPNS_12AstStatBlockEPKNS_6ModuleENS_7NotNullINS_12BuiltinTypesEEE(ptr noundef nonnull align 8 dereferenceable(288) %0, ptr noundef readnone captures(none) %1, ptr noundef readonly captures(none) %2, ptr noundef %3, ptr %4) local_unnamed_addr #6 align 2 personality ptr @__gxx_personality_v0 {
  %6 = getelementptr inbounds nuw i8, ptr %0, i64 136
  %7 = load i32, ptr %6, align 8, !tbaa !4
  %8 = add nsw i32 %7, 1
  store i32 %8, ptr %6, align 8, !tbaa !4
  %9 = load i32, ptr @_ZN4FInt28LuauAnySummaryRecursionLimitE, align 8, !tbaa !19
  %.not = icmp slt i32 %8, %9
  br i1 %.not, label %10, label %.loopexit

10:                                               ; preds = %5
  %11 = getelementptr inbounds nuw i8, ptr %2, i64 32
  %12 = load ptr, ptr %11, align 8, !tbaa !28
  %13 = getelementptr inbounds nuw i8, ptr %2, i64 40
  %14 = load i64, ptr %13, align 8, !tbaa !33
  %15 = getelementptr inbounds nuw ptr, ptr %12, i64 %14
  %.not1315 = icmp eq i64 %14, 0
  br i1 %.not1315, label %.loopexit, label %.lr.ph

.lr.ph:                                           ; preds = %10, %17
  %.016 = phi ptr [ %18, %17 ], [ %12, %10 ]
  %16 = load ptr, ptr %.016, align 8, !tbaa !34
  invoke void @_ZN4Luau14AnyTypeSummary5visitEPKNS_5ScopeEPNS_7AstStatEPKNS_6ModuleENS_7NotNullINS_12BuiltinTypesEEE(ptr noundef nonnull align 8 dereferenceable(288) %0, ptr noundef %1, ptr noundef %16, ptr noundef %3, ptr %4)
          to label %17 unwind label %19

17:                                               ; preds = %.lr.ph
  %18 = getelementptr inbounds nuw i8, ptr %.016, i64 8
  %.not13 = icmp eq ptr %18, %15
  br i1 %.not13, label %.loopexit.loopexit, label %.lr.ph

19:                                               ; preds = %.lr.ph
  %20 = landingpad { ptr, i32 }
          cleanup
  %21 = load i32, ptr %6, align 8, !tbaa !4
  %22 = add nsw i32 %21, -1
  store i32 %22, ptr %6, align 8, !tbaa !4
  resume { ptr, i32 } %20

.loopexit.loopexit:                               ; preds = %17
  %.pre = load i32, ptr %6, align 8, !tbaa !4
  %23 = add nsw i32 %.pre, -1
  br label %.loopexit

.loopexit:                                        ; preds = %.loopexit.loopexit, %10, %5
  %24 = phi i32 [ %23, %.loopexit.loopexit ], [ %7, %10 ], [ %7, %5 ]
  store i32 %24, ptr %6, align 8, !tbaa !4
  ret void
}